; Function Attrs: mustprogress uwtable
define noundef range(i32 0, 185) i32 @_ZN5boost3log11v2_mt_posix5sinks6syslog13make_facilityEi(i32 noundef returned %0) local_unnamed_addr #4 personality ptr @__gxx_personality_v0 {
  %2 = alloca %"class.std::out_of_range", align 8
  %3 = alloca %"struct.boost::source_location", align 8
  %4 = and i32 %0, 7
  %5 = icmp ne i32 %4, 0
  %6 = icmp ugt i32 %0, 184
  %7 = or i1 %6, %5
  br i1 %7, label %8, label %15, !prof !3

8:                                                ; preds = %1
  call void @llvm.lifetime.start.p0(i64 16, ptr nonnull %2) #33
  call void @_ZNSt12out_of_rangeC1EPKc(ptr noundef nonnull align 8 dereferenceable(16) %2, ptr noundef nonnull @.str.6)
  call void @llvm.lifetime.start.p0(i64 24, ptr nonnull %3) #33
  store ptr @.str.4, ptr %3, align 8, !tbaa !4
  %9 = getelementptr inbounds nuw i8, ptr %3, i64 8
  store ptr @.str.7, ptr %9, align 8, !tbaa !10
  %10 = getelementptr inbounds nuw i8, ptr %3, i64 16
  store i32 78, ptr %10, align 8, !tbaa !11
  %11 = getelementptr inbounds nuw i8, ptr %3, i64 20
  store i32 98, ptr %11, align 4, !tbaa !12
  invoke void @_ZN5boost15throw_exceptionISt12out_of_rangeEEvRKT_RKNS_15source_locationE(ptr noundef nonnull align 8 dereferenceable(16) %2, ptr noundef nonnull align 8 dereferenceable(24) %3) #35
          to label %12 unwind label %13

12:                                               ; preds = %8
  unreachable

13:                                               ; preds = %8
  %14 = landingpad { ptr, i32 }
          cleanup
  call void @llvm.lifetime.end.p0(i64 24, ptr nonnull %3) #33
  call void @_ZNSt12out_of_rangeD1Ev(ptr noundef nonnull align 8 dereferenceable(16) %2) #33
  call void @llvm.lifetime.end.p0(i64 16, ptr nonnull %2) #33
  resume { ptr, i32 } %14

15:                                               ; preds = %1
  ret i32 %0
}